target datalayout = "e-m:e-p270:32:32-p271:32:32-p272:64:64-i64:64-i128:128-f80:128-n8:16:32:64-S128"
target triple = "x86_64-pc-linux-gnu"

; Function Attrs: nounwind uwtable
define i32 @wc_GetDateAsCalendarTime(ptr noundef %0, i32 noundef %1, i8 noundef zeroext %2, ptr noundef %3) #0 {
  %5 = alloca i32, align 4
  %6 = alloca ptr, align 8
  %7 = alloca i32, align 4
  %8 = alloca i8, align 1
  %9 = alloca ptr, align 8
  %10 = alloca i32, align 4
  %11 = alloca i32, align 4
  store ptr %0, ptr %6, align 8, !tbaa !7
  store i32 %1, ptr %7, align 4, !tbaa !3
  store i8 %2, ptr %8, align 1, !tbaa !10
  store ptr %3, ptr %9, align 8, !tbaa !139
  call void @llvm.lifetime.start.p0(i64 4, ptr %10) #9
  store i32 0, ptr %10, align 4, !tbaa !3
  %12 = load ptr, ptr %6, align 8, !tbaa !7
  %13 = load i8, ptr %8, align 1, !tbaa !10
  %14 = load ptr, ptr %9, align 8, !tbaa !139
  %15 = call i32 @ExtractDate(ptr noundef %12, i8 noundef zeroext %13, ptr noundef %14, ptr noundef %10)
  %16 = icmp ne i32 %15, 0
  br i1 %16, label %18, label %17

17:                                               ; preds = %4
  store i32 -153, ptr %5, align 4
  store i32 1, ptr %11, align 4
  br label %19

18:                                               ; preds = %4
  store i32 0, ptr %5, align 4
  store i32 1, ptr %11, align 4
  br label %19

19:                                               ; preds = %18, %17
  call void @llvm.lifetime.end.p0(i64 4, ptr %10) #9
  %20 = load i32, ptr %5, align 4
  ret i32 %20
}