; Function Attrs: mustprogress nofree norecurse nosync nounwind willreturn memory(argmem: readwrite) uwtable
define range(i32 -153, 1) i32 @wc_GetDateAsCalendarTime(ptr noundef readonly captures(none) %0, i32 noundef %1, i8 noundef zeroext %2, ptr noundef captures(none) initializes((0, 56)) %3) local_unnamed_addr #7 {
  %5 = alloca i32, align 4
  call void @llvm.lifetime.start.p0(i64 4, ptr nonnull %5) #22
  store i32 0, ptr %5, align 4, !tbaa !22
  %6 = call i32 @ExtractDate(ptr noundef %0, i8 noundef zeroext %2, ptr noundef %3, ptr noundef nonnull %5)
  %.not = icmp eq i32 %6, 0
  %. = select i1 %.not, i32 -153, i32 0
  call void @llvm.lifetime.end.p0(i64 4, ptr nonnull %5) #22
  ret i32 %.
}